target datalayout = "e-m:e-p270:32:32-p271:32:32-p272:64:64-i64:64-i128:128-f80:128-n8:16:32:64-S128"
target triple = "x86_64-pc-linux-gnu"

%struct.pmix_mca_base_var_enum_value_t = type { i32, ptr }

@.str.14 = private unnamed_addr constant [3 x i8] c"%d\00", align 1

; Function Attrs: nounwind uwtable
define internal i32 @pmix_mca_base_var_enum_verbose_sfv(ptr noundef %0, i32 noundef %1, ptr noundef %2) #0 {
  %4 = alloca i32, align 4
  %5 = alloca ptr, align 8
  %6 = alloca i32, align 4
  %7 = alloca ptr, align 8
  %8 = alloca i32, align 4
  %9 = alloca i32, align 4
  %10 = alloca i32, align 4
  store ptr %0, ptr %5, align 8, !tbaa !3
  store i32 %1, ptr %6, align 4, !tbaa !24
  store ptr %2, ptr %7, align 8, !tbaa !47
  call void @llvm.lifetime.start.p0(i64 4, ptr %8) #13
  %11 = load i32, ptr %6, align 4, !tbaa !24
  %12 = icmp slt i32 %11, 0
  br i1 %12, label %16, label %13

13:                                               ; preds = %3
  %14 = load i32, ptr %6, align 4, !tbaa !24
  %15 = icmp sgt i32 %14, 100
  br i1 %15, label %16, label %17

16:                                               ; preds = %13, %3
  store i32 -65, ptr %4, align 4
  store i32 1, ptr %9, align 4
  br label %60

17:                                               ; preds = %13
  call void @llvm.lifetime.start.p0(i64 4, ptr %10) #13
  store i32 0, ptr %10, align 4, !tbaa !24
  br label %18

18:                                               ; preds = %43, %17
  %19 = load i32, ptr %10, align 4, !tbaa !24
  %20 = sext i32 %19 to i64
  %21 = getelementptr inbounds [9 x %struct.pmix_mca_base_var_enum_value_t], ptr @verbose_values, i64 0, i64 %20
  %22 = getelementptr inbounds nuw %struct.pmix_mca_base_var_enum_value_t, ptr %21, i32 0, i32 1
  %23 = load ptr, ptr %22, align 8, !tbaa !26
  %24 = icmp ne ptr %23, null
  br i1 %24, label %26, label %25

25:                                               ; preds = %18
  store i32 2, ptr %9, align 4
  br label %46

26:                                               ; preds = %18
  %27 = load i32, ptr %10, align 4, !tbaa !24
  %28 = sext i32 %27 to i64
  %29 = getelementptr inbounds [9 x %struct.pmix_mca_base_var_enum_value_t], ptr @verbose_values, i64 0, i64 %28
  %30 = getelementptr inbounds nuw %struct.pmix_mca_base_var_enum_value_t, ptr %29, i32 0, i32 0
  %31 = load i32, ptr %30, align 16, !tbaa !51
  %32 = load i32, ptr %6, align 4, !tbaa !24
  %33 = icmp eq i32 %31, %32
  br i1 %33, label %34, label %42

34:                                               ; preds = %26
  %35 = load i32, ptr %10, align 4, !tbaa !24
  %36 = sext i32 %35 to i64
  %37 = getelementptr inbounds [9 x %struct.pmix_mca_base_var_enum_value_t], ptr @verbose_values, i64 0, i64 %36
  %38 = getelementptr inbounds nuw %struct.pmix_mca_base_var_enum_value_t, ptr %37, i32 0, i32 1
  %39 = load ptr, ptr %38, align 8, !tbaa !26
  %40 = call noalias ptr @strdup(ptr noundef %39) #13
  %41 = load ptr, ptr %7, align 8, !tbaa !47
  store ptr %40, ptr %41, align 8, !tbaa !49
  store i32 0, ptr %4, align 4
  store i32 1, ptr %9, align 4
  br label %46

42:                                               ; preds = %26
  br label %43

43:                                               ; preds = %42
  %44 = load i32, ptr %10, align 4, !tbaa !24
  %45 = add nsw i32 %44, 1
  store i32 %45, ptr %10, align 4, !tbaa !24
  br label %18, !llvm.loop !53

46:                                               ; preds = %34, %25
  call void @llvm.lifetime.end.p0(i64 4, ptr %10) #13
  %47 = load i32, ptr %9, align 4
  switch i32 %47, label %60 [
    i32 2, label %48
  ]

48:                                               ; preds = %46
  %49 = load ptr, ptr %7, align 8, !tbaa !47
  %50 = icmp ne ptr %49, null
  br i1 %50, label %51, label %59

51:                                               ; preds = %48
  %52 = load ptr, ptr %7, align 8, !tbaa !47
  %53 = load i32, ptr %6, align 4, !tbaa !24
  %54 = call i32 (ptr, ptr, ...) @asprintf(ptr noundef %52, ptr noundef @.str.14, i32 noundef %53) #13
  store i32 %54, ptr %8, align 4, !tbaa !24
  %55 = load i32, ptr %8, align 4, !tbaa !24
  %56 = icmp sgt i32 0, %55
  br i1 %56, label %57, label %58

57:                                               ; preds = %51
  store i32 -29, ptr %4, align 4
  store i32 1, ptr %9, align 4
  br label %60

58:                                               ; preds = %51
  br label %59

59:                                               ; preds = %58, %48
  store i32 0, ptr %4, align 4
  store i32 1, ptr %9, align 4
  br label %60

60:                                               ; preds = %59, %57, %46, %16
  call void @llvm.lifetime.end.p0(i64 4, ptr %8) #13
  %61 = load i32, ptr %4, align 4
  ret i32 %61
}