; Function Attrs: nounwind uwtable
define internal range(i32 -65, 1) i32 @pmix_mca_base_var_enum_verbose_sfv(ptr readnone captures(none) %0, i32 noundef %1, ptr noundef %2) #1 {
  %or.cond = icmp ugt i32 %1, 100
  br i1 %or.cond, label %17, label %.preheader

.preheader:                                       ; preds = %3
  %4 = load ptr, ptr getelementptr inbounds nuw (i8, ptr @verbose_values, i64 8), align 8, !tbaa !23
  %.not21 = icmp eq ptr %4, null
  br i1 %.not21, label %.critedge, label %.lr.ph.preheader

.lr.ph.preheader:                                 ; preds = %.preheader
  %5 = load i32, ptr @verbose_values, align 16, !tbaa !43
  %6 = icmp eq i32 %5, %1
  br i1 %6, label %.lr.ph._crit_edge, label %.lr.ph28

.lr.ph28:                                         ; preds = %.lr.ph.preheader, %.lr.ph
  %indvars.iv27 = phi i64 [ %indvars.iv.next, %.lr.ph ], [ 0, %.lr.ph.preheader ]
  %indvars.iv.next = add nuw nsw i64 %indvars.iv27, 1
  %7 = getelementptr inbounds nuw [9 x %struct.pmix_mca_base_var_enum_value_t], ptr @verbose_values, i64 0, i64 %indvars.iv.next
  %8 = getelementptr inbounds nuw i8, ptr %7, i64 8
  %9 = load ptr, ptr %8, align 8, !tbaa !23
  %.not = icmp eq ptr %9, null
  br i1 %.not, label %.critedge, label %.lr.ph, !llvm.loop !45

.lr.ph:                                           ; preds = %.lr.ph28
  %10 = load i32, ptr %7, align 16, !tbaa !43
  %11 = icmp eq i32 %10, %1
  br i1 %11, label %.lr.ph._crit_edge, label %.lr.ph28, !llvm.loop !45

.lr.ph._crit_edge:                                ; preds = %.lr.ph, %.lr.ph.preheader
  %.lcssa = phi ptr [ %4, %.lr.ph.preheader ], [ %9, %.lr.ph ]
  %12 = tail call noalias ptr @strdup(ptr noundef nonnull %.lcssa) #21
  store ptr %12, ptr %2, align 8, !tbaa !41
  br label %17

.critedge:                                        ; preds = %.lr.ph28, %.preheader
  %.not19 = icmp eq ptr %2, null
  br i1 %.not19, label %16, label %13

13:                                               ; preds = %.critedge
  %14 = tail call i32 (ptr, ptr, ...) @asprintf(ptr noundef nonnull %2, ptr noundef nonnull @.str.14, i32 noundef %1) #21
  %15 = icmp slt i32 %14, 0
  br i1 %15, label %17, label %16

16:                                               ; preds = %13, %.critedge
  br label %17

17:                                               ; preds = %.lr.ph._crit_edge, %13, %3, %16
  %.015 = phi i32 [ 0, %16 ], [ 0, %.lr.ph._crit_edge ], [ -65, %3 ], [ -29, %13 ]
  ret i32 %.015
}